target datalayout = "e-m:e-p270:32:32-p271:32:32-p272:64:64-i64:64-i128:128-f80:128-n8:16:32:64-S128"
target triple = "x86_64-pc-linux-gnu"

@hf_telnet_auth_name = internal global i32 0, align 4
@hf_telnet_auth_cmd = internal global i32 0, align 4
@hf_telnet_auth_type = internal global i32 0, align 4
@hf_telnet_auth_krb5_type = internal global i32 0, align 4
@hf_telnet_auth_ssl_status = internal global i32 0, align 4
@hf_telnet_auth_data = internal global i32 0, align 4
@telnet_handle = internal global ptr null, align 8
@tls_handle = internal global ptr null, align 8
@.str.383 = private unnamed_addr constant [30 x i8] c"Unhandled authentication data\00", align 1
@dissect_authentication_type_pair.auth_mods = internal constant [5 x ptr] [ptr @hf_telnet_auth_mod_enc, ptr @hf_telnet_auth_mod_cred_fwd, ptr @hf_telnet_auth_mod_how, ptr @hf_telnet_auth_mod_who, ptr null], align 16

; Function Attrs: null_pointer_is_valid sspstrong uwtable
define internal void @dissect_krb5_authentication_data(ptr noundef %0, ptr noundef %1, i32 noundef %2, i32 noundef %3, ptr noundef %4, i8 noundef zeroext %5) #0 {
  %7 = alloca ptr, align 8
  %8 = alloca ptr, align 8
  %9 = alloca i32, align 4
  %10 = alloca i32, align 4
  %11 = alloca ptr, align 8
  %12 = alloca i8, align 1
  %13 = alloca ptr, align 8
  %14 = alloca i8, align 1
  store ptr %0, ptr %7, align 8
  store ptr %1, ptr %8, align 8
  store i32 %2, ptr %9, align 4
  store i32 %3, ptr %10, align 4
  store ptr %4, ptr %11, align 8
  store i8 %5, ptr %12, align 1
  call void @llvm.lifetime.start.p0(i64 8, ptr %13) #7
  call void @llvm.lifetime.start.p0(i64 1, ptr %14) #7
  %15 = load ptr, ptr %8, align 8
  %16 = load i32, ptr %9, align 4
  %17 = call zeroext i8 @tvb_get_uint8(ptr noundef %15, i32 noundef %16)
  store i8 %17, ptr %14, align 1
  %18 = load ptr, ptr %11, align 8
  %19 = load i32, ptr @hf_telnet_auth_krb5_type, align 4
  %20 = load ptr, ptr %8, align 8
  %21 = load i32, ptr %9, align 4
  %22 = load i8, ptr %14, align 1
  %23 = zext i8 %22 to i32
  %24 = call ptr @proto_tree_add_uint(ptr noundef %18, i32 noundef %19, ptr noundef %20, i32 noundef %21, i32 noundef 1, i32 noundef %23)
  %25 = load i32, ptr %9, align 4
  %26 = add i32 %25, 1
  store i32 %26, ptr %9, align 4
  %27 = load i32, ptr %10, align 4
  %28 = add i32 %27, -1
  store i32 %28, ptr %10, align 4
  %29 = load i8, ptr %12, align 1
  %30 = zext i8 %29 to i32
  %31 = icmp eq i32 %30, 0
  br i1 %31, label %32, label %49

32:                                               ; preds = %6
  %33 = load i8, ptr %14, align 1
  %34 = zext i8 %33 to i32
  %35 = icmp eq i32 %34, 0
  br i1 %35, label %36, label %49

36:                                               ; preds = %32
  %37 = load i32, ptr %10, align 4
  %38 = icmp ne i32 %37, 0
  br i1 %38, label %39, label %48

39:                                               ; preds = %36
  %40 = load ptr, ptr %8, align 8
  %41 = load i32, ptr %9, align 4
  %42 = load i32, ptr %10, align 4
  %43 = call ptr @tvb_new_subset_length(ptr noundef %40, i32 noundef %41, i32 noundef %42)
  store ptr %43, ptr %13, align 8
  %44 = load ptr, ptr %13, align 8
  %45 = load ptr, ptr %7, align 8
  %46 = load ptr, ptr %11, align 8
  %47 = call i32 @dissect_kerberos_main(ptr noundef %44, ptr noundef %45, ptr noundef %46, i1 noundef zeroext false, ptr noundef null)
  br label %48

48:                                               ; preds = %39, %36
  br label %49

49:                                               ; preds = %48, %32, %6
  %50 = load i8, ptr %12, align 1
  %51 = zext i8 %50 to i32
  %52 = icmp eq i32 %51, 2
  br i1 %52, label %53, label %70

53:                                               ; preds = %49
  %54 = load i8, ptr %14, align 1
  %55 = zext i8 %54 to i32
  %56 = icmp eq i32 %55, 3
  br i1 %56, label %57, label %70

57:                                               ; preds = %53
  %58 = load i32, ptr %10, align 4
  %59 = icmp ne i32 %58, 0
  br i1 %59, label %60, label %69

60:                                               ; preds = %57
  %61 = load ptr, ptr %8, align 8
  %62 = load i32, ptr %9, align 4
  %63 = load i32, ptr %10, align 4
  %64 = call ptr @tvb_new_subset_length(ptr noundef %61, i32 noundef %62, i32 noundef %63)
  store ptr %64, ptr %13, align 8
  %65 = load ptr, ptr %13, align 8
  %66 = load ptr, ptr %7, align 8
  %67 = load ptr, ptr %11, align 8
  %68 = call i32 @dissect_kerberos_main(ptr noundef %65, ptr noundef %66, ptr noundef %67, i1 noundef zeroext false, ptr noundef null)
  br label %69

69:                                               ; preds = %60, %57
  br label %70

70:                                               ; preds = %69, %53, %49
  call void @llvm.lifetime.end.p0(i64 1, ptr %14) #7
  call void @llvm.lifetime.end.p0(i64 8, ptr %13) #7
  ret void
}

; Function Attrs: null_pointer_is_valid sspstrong uwtable
define internal void @dissect_ssl_authentication_data(ptr noundef %0, ptr noundef %1, i32 noundef %2, ptr noundef %3, i8 noundef zeroext %4) #0 {
  %6 = alloca ptr, align 8
  %7 = alloca ptr, align 8
  %8 = alloca i32, align 4
  %9 = alloca ptr, align 8
  %10 = alloca i8, align 1
  %11 = alloca i32, align 4
  store ptr %0, ptr %6, align 8
  store ptr %1, ptr %7, align 8
  store i32 %2, ptr %8, align 4
  store ptr %3, ptr %9, align 8
  store i8 %4, ptr %10, align 1
  call void @llvm.lifetime.start.p0(i64 4, ptr %11) #7
  %12 = load ptr, ptr %9, align 8
  %13 = load i32, ptr @hf_telnet_auth_ssl_status, align 4
  %14 = load ptr, ptr %7, align 8
  %15 = load i32, ptr %8, align 4
  %16 = call ptr @proto_tree_add_item_ret_uint(ptr noundef %12, i32 noundef %13, ptr noundef %14, i32 noundef %15, i32 noundef 1, i32 noundef 0, ptr noundef %11)
  %17 = load i8, ptr %10, align 1
  %18 = zext i8 %17 to i32
  %19 = icmp eq i32 %18, 2
  br i1 %19, label %20, label %28

20:                                               ; preds = %5
  %21 = load i32, ptr %11, align 4
  %22 = icmp eq i32 %21, 2
  br i1 %22, label %23, label %28

23:                                               ; preds = %20
  %24 = load ptr, ptr @tls_handle, align 8
  %25 = load ptr, ptr %6, align 8
  %26 = load ptr, ptr @telnet_handle, align 8
  %27 = call i32 @ssl_starttls_ack(ptr noundef %24, ptr noundef %25, ptr noundef %26)
  br label %28

28:                                               ; preds = %23, %20, %5
  call void @llvm.lifetime.end.p0(i64 4, ptr %11) #7
  ret void
}

; Function Attrs: null_pointer_is_valid sspstrong uwtable
define internal void @dissect_authentication_type_pair(ptr noundef %0, ptr noundef %1, i32 noundef %2, ptr noundef %3) #0 {
  %5 = alloca ptr, align 8
  %6 = alloca ptr, align 8
  %7 = alloca i32, align 4
  %8 = alloca ptr, align 8
  store ptr %0, ptr %5, align 8
  store ptr %1, ptr %6, align 8
  store i32 %2, ptr %7, align 4
  store ptr %3, ptr %8, align 8
  %9 = load ptr, ptr %8, align 8
  %10 = load i32, ptr @hf_telnet_auth_type, align 4
  %11 = load ptr, ptr %6, align 8
  %12 = load i32, ptr %7, align 4
  %13 = call ptr @proto_tree_add_item(ptr noundef %9, i32 noundef %10, ptr noundef %11, i32 noundef %12, i32 noundef 1, i32 noundef 0)
  %14 = load ptr, ptr %8, align 8
  %15 = load ptr, ptr %6, align 8
  %16 = load i32, ptr %7, align 4
  %17 = add i32 %16, 1
  call void @proto_tree_add_bitmask_list(ptr noundef %14, ptr noundef %15, i32 noundef %17, i32 noundef 1, ptr noundef @dissect_authentication_type_pair.auth_mods, i32 noundef 0)
  ret void
}

; Function Attrs: null_pointer_is_valid sspstrong uwtable
define internal void @dissect_authentication_data(ptr noundef %0, ptr noundef %1, i32 noundef %2, i32 noundef %3, ptr noundef %4, i8 noundef zeroext %5) #0 {
  %7 = alloca ptr, align 8
  %8 = alloca ptr, align 8
  %9 = alloca i32, align 4
  %10 = alloca i32, align 4
  %11 = alloca ptr, align 8
  %12 = alloca i8, align 1
  %13 = alloca i8, align 1
  store ptr %0, ptr %7, align 8
  store ptr %1, ptr %8, align 8
  store i32 %2, ptr %9, align 4
  store i32 %3, ptr %10, align 4
  store ptr %4, ptr %11, align 8
  store i8 %5, ptr %12, align 1
  call void @llvm.lifetime.start.p0(i64 1, ptr %13) #7
  %14 = load ptr, ptr %7, align 8
  %15 = load ptr, ptr %8, align 8
  %16 = load i32, ptr %9, align 4
  %17 = load ptr, ptr %11, align 8
  call void @dissect_authentication_type_pair(ptr noundef %14, ptr noundef %15, i32 noundef %16, ptr noundef %17)
  %18 = load ptr, ptr %8, align 8
  %19 = load i32, ptr %9, align 4
  %20 = call zeroext i8 @tvb_get_uint8(ptr noundef %18, i32 noundef %19)
  store i8 %20, ptr %13, align 1
  %21 = load i32, ptr %9, align 4
  %22 = add i32 %21, 2
  store i32 %22, ptr %9, align 4
  %23 = load i32, ptr %10, align 4
  %24 = sub i32 %23, 2
  store i32 %24, ptr %10, align 4
  %25 = load i8, ptr %13, align 1
  %26 = zext i8 %25 to i32
  switch i32 %26, label %40 [
    i32 0, label %51
    i32 7, label %27
    i32 2, label %33
  ]

27:                                               ; preds = %6
  %28 = load ptr, ptr %7, align 8
  %29 = load ptr, ptr %8, align 8
  %30 = load i32, ptr %9, align 4
  %31 = load ptr, ptr %11, align 8
  %32 = load i8, ptr %12, align 1
  call void @dissect_ssl_authentication_data(ptr noundef %28, ptr noundef %29, i32 noundef %30, ptr noundef %31, i8 noundef zeroext %32)
  br label %51

33:                                               ; preds = %6
  %34 = load ptr, ptr %7, align 8
  %35 = load ptr, ptr %8, align 8
  %36 = load i32, ptr %9, align 4
  %37 = load i32, ptr %10, align 4
  %38 = load ptr, ptr %11, align 8
  %39 = load i8, ptr %12, align 1
  call void @dissect_krb5_authentication_data(ptr noundef %34, ptr noundef %35, i32 noundef %36, i32 noundef %37, ptr noundef %38, i8 noundef zeroext %39)
  br label %51

40:                                               ; preds = %6
  %41 = load i32, ptr %10, align 4
  %42 = icmp sgt i32 %41, 0
  br i1 %42, label %43, label %50

43:                                               ; preds = %40
  %44 = load ptr, ptr %11, align 8
  %45 = load i32, ptr @hf_telnet_auth_data, align 4
  %46 = load ptr, ptr %8, align 8
  %47 = load i32, ptr %9, align 4
  %48 = load i32, ptr %10, align 4
  %49 = call ptr (ptr, i32, ptr, i32, i32, ptr, ptr, ...) @proto_tree_add_bytes_format(ptr noundef %44, i32 noundef %45, ptr noundef %46, i32 noundef %47, i32 noundef %48, ptr noundef null, ptr noundef @.str.383)
  br label %50

50:                                               ; preds = %43, %40
  br label %51

51:                                               ; preds = %50, %33, %27, %6
  call void @llvm.lifetime.end.p0(i64 1, ptr %13) #7
  ret void
}

; Function Attrs: null_pointer_is_valid sspstrong uwtable
define internal void @dissect_authentication_subopt(ptr noundef %0, ptr noundef %1, ptr noundef %2, i32 noundef %3, i32 noundef %4, ptr noundef %5, ptr noundef %6) #0 {
  %8 = alloca ptr, align 8
  %9 = alloca ptr, align 8
  %10 = alloca ptr, align 8
  %11 = alloca i32, align 4
  %12 = alloca i32, align 4
  %13 = alloca ptr, align 8
  %14 = alloca ptr, align 8
  %15 = alloca i8, align 1
  store ptr %0, ptr %8, align 8
  store ptr %1, ptr %9, align 8
  store ptr %2, ptr %10, align 8
  store i32 %3, ptr %11, align 4
  store i32 %4, ptr %12, align 4
  store ptr %5, ptr %13, align 8
  store ptr %6, ptr %14, align 8
  call void @llvm.lifetime.start.p0(i64 1, ptr %15) #7
  %16 = load ptr, ptr %10, align 8
  %17 = load i32, ptr %11, align 4
  %18 = call zeroext i8 @tvb_get_uint8(ptr noundef %16, i32 noundef %17)
  store i8 %18, ptr %15, align 1
  %19 = load ptr, ptr %13, align 8
  %20 = load i32, ptr @hf_telnet_auth_cmd, align 4
  %21 = load ptr, ptr %10, align 8
  %22 = load i32, ptr %11, align 4
  %23 = load i8, ptr %15, align 1
  %24 = zext i8 %23 to i32
  %25 = call ptr @proto_tree_add_uint(ptr noundef %19, i32 noundef %20, ptr noundef %21, i32 noundef %22, i32 noundef 1, i32 noundef %24)
  %26 = load i32, ptr %11, align 4
  %27 = add i32 %26, 1
  store i32 %27, ptr %11, align 4
  %28 = load i32, ptr %12, align 4
  %29 = add i32 %28, -1
  store i32 %29, ptr %12, align 4
  %30 = load i8, ptr %15, align 1
  %31 = zext i8 %30 to i32
  switch i32 %31, label %60 [
    i32 2, label %32
    i32 0, label %32
    i32 1, label %39
    i32 3, label %53
  ]

32:                                               ; preds = %7, %7
  %33 = load ptr, ptr %8, align 8
  %34 = load ptr, ptr %10, align 8
  %35 = load i32, ptr %11, align 4
  %36 = load i32, ptr %12, align 4
  %37 = load ptr, ptr %13, align 8
  %38 = load i8, ptr %15, align 1
  call void @dissect_authentication_data(ptr noundef %33, ptr noundef %34, i32 noundef %35, i32 noundef %36, ptr noundef %37, i8 noundef zeroext %38)
  br label %60

39:                                               ; preds = %7
  br label %40

40:                                               ; preds = %43, %39
  %41 = load i32, ptr %12, align 4
  %42 = icmp sgt i32 %41, 0
  br i1 %42, label %43, label %52

43:                                               ; preds = %40
  %44 = load ptr, ptr %8, align 8
  %45 = load ptr, ptr %10, align 8
  %46 = load i32, ptr %11, align 4
  %47 = load ptr, ptr %13, align 8
  call void @dissect_authentication_type_pair(ptr noundef %44, ptr noundef %45, i32 noundef %46, ptr noundef %47)
  %48 = load i32, ptr %11, align 4
  %49 = add i32 %48, 2
  store i32 %49, ptr %11, align 4
  %50 = load i32, ptr %12, align 4
  %51 = sub i32 %50, 2
  store i32 %51, ptr %12, align 4
  br label %40, !llvm.loop !17

52:                                               ; preds = %40
  br label %60

53:                                               ; preds = %7
  %54 = load ptr, ptr %13, align 8
  %55 = load i32, ptr @hf_telnet_auth_name, align 4
  %56 = load ptr, ptr %10, align 8
  %57 = load i32, ptr %11, align 4
  %58 = load i32, ptr %12, align 4
  %59 = call ptr @proto_tree_add_item(ptr noundef %54, i32 noundef %55, ptr noundef %56, i32 noundef %57, i32 noundef %58, i32 noundef 0)
  br label %60

60:                                               ; preds = %7, %53, %52, %32
  call void @llvm.lifetime.end.p0(i64 1, ptr %15) #7
  ret void
}