; Function Attrs: null_pointer_is_valid sspstrong uwtable
define internal void @dissect_authentication_subopt(ptr noundef %0, ptr readnone captures(none) %1, ptr noundef %2, i32 noundef %3, i32 noundef %4, ptr noundef %5, ptr readnone captures(none) %6) #0 {
  %8 = alloca i32, align 4
  %9 = tail call zeroext i8 @tvb_get_uint8(ptr noundef %2, i32 noundef %3)
  %10 = load i32, ptr @hf_telnet_auth_cmd, align 4
  %11 = zext i8 %9 to i32
  %12 = tail call ptr @proto_tree_add_uint(ptr noundef %5, i32 noundef %10, ptr noundef %2, i32 noundef %3, i32 noundef 1, i32 noundef %11)
  %13 = add i32 %3, 1
  %14 = add i32 %4, -1
  switch i8 %9, label %dissect_authentication_data.exit [
    i8 2, label %16
    i8 0, label %16
    i8 1, label %.preheader
    i8 3, label %62
  ]

.preheader:                                       ; preds = %7
  %15 = icmp sgt i32 %14, 0
  br i1 %15, label %.lr.ph, label %dissect_authentication_data.exit

16:                                               ; preds = %7, %7
  %17 = load i32, ptr @hf_telnet_auth_type, align 4
  %18 = tail call ptr @proto_tree_add_item(ptr noundef %5, i32 noundef %17, ptr noundef %2, i32 noundef %13, i32 noundef 1, i32 noundef 0)
  %19 = add i32 %3, 2
  tail call void @proto_tree_add_bitmask_list(ptr noundef %5, ptr noundef %2, i32 noundef %19, i32 noundef 1, ptr noundef nonnull @dissect_authentication_type_pair.auth_mods, i32 noundef 0)
  %20 = tail call zeroext i8 @tvb_get_uint8(ptr noundef %2, i32 noundef %13)
  %21 = add i32 %3, 3
  %22 = add i32 %4, -3
  switch i8 %20, label %51 [
    i8 0, label %dissect_authentication_data.exit
    i8 7, label %23
    i8 2, label %33
  ]

23:                                               ; preds = %16
  call void @llvm.lifetime.start.p0(i64 4, ptr nonnull %8) #7
  %24 = load i32, ptr @hf_telnet_auth_ssl_status, align 4
  %25 = call ptr @proto_tree_add_item_ret_uint(ptr noundef %5, i32 noundef %24, ptr noundef %2, i32 noundef %21, i32 noundef 1, i32 noundef 0, ptr noundef nonnull %8)
  %26 = icmp eq i8 %9, 2
  %27 = load i32, ptr %8, align 4
  %28 = icmp eq i32 %27, 2
  %or.cond.i.i = select i1 %26, i1 %28, i1 false
  br i1 %or.cond.i.i, label %29, label %dissect_ssl_authentication_data.exit.i

29:                                               ; preds = %23
  %30 = load ptr, ptr @tls_handle, align 8
  %31 = load ptr, ptr @telnet_handle, align 8
  %32 = call i32 @ssl_starttls_ack(ptr noundef %30, ptr noundef %0, ptr noundef %31)
  br label %dissect_ssl_authentication_data.exit.i

dissect_ssl_authentication_data.exit.i:           ; preds = %29, %23
  call void @llvm.lifetime.end.p0(i64 4, ptr nonnull %8) #7
  br label %dissect_authentication_data.exit

33:                                               ; preds = %16
  %34 = tail call zeroext i8 @tvb_get_uint8(ptr noundef %2, i32 noundef %21)
  %35 = load i32, ptr @hf_telnet_auth_krb5_type, align 4
  %36 = zext i8 %34 to i32
  %37 = tail call ptr @proto_tree_add_uint(ptr noundef %5, i32 noundef %35, ptr noundef %2, i32 noundef %21, i32 noundef 1, i32 noundef %36)
  %38 = add i32 %3, 4
  %39 = add i32 %4, -4
  %40 = or i8 %34, %9
  %or.cond.i24.i = icmp eq i8 %40, 0
  %41 = icmp ne i32 %39, 0
  %or.cond7.i.i = and i1 %41, %or.cond.i24.i
  br i1 %or.cond7.i.i, label %42, label %45

42:                                               ; preds = %33
  %43 = tail call ptr @tvb_new_subset_length(ptr noundef %2, i32 noundef %38, i32 noundef %39)
  %44 = tail call i32 @dissect_kerberos_main(ptr noundef %43, ptr noundef %0, ptr noundef %5, i1 noundef zeroext false, ptr noundef null)
  br label %45

45:                                               ; preds = %42, %33
  %46 = icmp eq i8 %9, 2
  %47 = icmp eq i8 %34, 3
  %or.cond5.i.i = and i1 %46, %47
  %or.cond9.i.i = and i1 %41, %or.cond5.i.i
  br i1 %or.cond9.i.i, label %48, label %dissect_authentication_data.exit

48:                                               ; preds = %45
  %49 = tail call ptr @tvb_new_subset_length(ptr noundef %2, i32 noundef %38, i32 noundef %39)
  %50 = tail call i32 @dissect_kerberos_main(ptr noundef %49, ptr noundef %0, ptr noundef %5, i1 noundef zeroext false, ptr noundef null)
  br label %dissect_authentication_data.exit

51:                                               ; preds = %16
  %52 = icmp sgt i32 %22, 0
  br i1 %52, label %53, label %dissect_authentication_data.exit

53:                                               ; preds = %51
  %54 = load i32, ptr @hf_telnet_auth_data, align 4
  %55 = tail call ptr (ptr, i32, ptr, i32, i32, ptr, ptr, ...) @proto_tree_add_bytes_format(ptr noundef %5, i32 noundef %54, ptr noundef %2, i32 noundef %21, i32 noundef %22, ptr noundef null, ptr noundef nonnull @.str.383)
  br label %dissect_authentication_data.exit

.lr.ph:                                           ; preds = %.preheader, %.lr.ph
  %.027 = phi i32 [ %59, %.lr.ph ], [ %13, %.preheader ]
  %.02526 = phi i32 [ %60, %.lr.ph ], [ %14, %.preheader ]
  %56 = load i32, ptr @hf_telnet_auth_type, align 4
  %57 = tail call ptr @proto_tree_add_item(ptr noundef %5, i32 noundef %56, ptr noundef %2, i32 noundef %.027, i32 noundef 1, i32 noundef 0)
  %58 = add i32 %.027, 1
  tail call void @proto_tree_add_bitmask_list(ptr noundef %5, ptr noundef %2, i32 noundef %58, i32 noundef 1, ptr noundef nonnull @dissect_authentication_type_pair.auth_mods, i32 noundef 0)
  %59 = add i32 %.027, 2
  %60 = add nsw i32 %.02526, -2
  %61 = icmp samesign ugt i32 %.02526, 2
  br i1 %61, label %.lr.ph, label %dissect_authentication_data.exit, !llvm.loop !16

62:                                               ; preds = %7
  %63 = load i32, ptr @hf_telnet_auth_name, align 4
  %64 = tail call ptr @proto_tree_add_item(ptr noundef %5, i32 noundef %63, ptr noundef %2, i32 noundef %13, i32 noundef %14, i32 noundef 0)
  br label %dissect_authentication_data.exit

dissect_authentication_data.exit:                 ; preds = %.lr.ph, %.preheader, %53, %51, %48, %45, %dissect_ssl_authentication_data.exit.i, %16, %62, %7
  ret void
}